target datalayout = "e-m:e-p270:32:32-p271:32:32-p272:64:64-i64:64-i128:128-f80:128-n8:16:32:64-S128"
target triple = "x86_64-pc-linux-gnu"

%"struct.duckdb_libpgquery::PGAlias" = type { i32, ptr, ptr }

; Function Attrs: mustprogress uwtable
define hidden noundef ptr @_ZN17duckdb_libpgquery9makeAliasEPKcPNS_6PGListE(ptr noundef %0, ptr noundef %1) #0 {
  %3 = alloca ptr, align 8
  %4 = alloca ptr, align 8
  %5 = alloca ptr, align 8
  store ptr %0, ptr %3, align 8, !tbaa !23
  store ptr %1, ptr %4, align 8, !tbaa !7
  call void @llvm.lifetime.start.p0(i64 8, ptr %5) #3
  %6 = call noundef ptr @_ZN17duckdb_libpgquery7newNodeEmNS_9PGNodeTagE(i64 noundef 24, i32 noundef 95)
  store ptr %6, ptr %5, align 8, !tbaa !34
  %7 = load ptr, ptr %3, align 8, !tbaa !23
  %8 = call noundef ptr @_ZN17duckdb_libpgquery7pstrdupEPKc(ptr noundef %7)
  %9 = load ptr, ptr %5, align 8, !tbaa !34
  %10 = getelementptr inbounds nuw %"struct.duckdb_libpgquery::PGAlias", ptr %9, i32 0, i32 1
  store ptr %8, ptr %10, align 8, !tbaa !36
  %11 = load ptr, ptr %4, align 8, !tbaa !7
  %12 = load ptr, ptr %5, align 8, !tbaa !34
  %13 = getelementptr inbounds nuw %"struct.duckdb_libpgquery::PGAlias", ptr %12, i32 0, i32 2
  store ptr %11, ptr %13, align 8, !tbaa !38
  %14 = load ptr, ptr %5, align 8, !tbaa !34
  call void @llvm.lifetime.end.p0(i64 8, ptr %5) #3
  ret ptr %14
}